; Function Attrs: mustprogress nounwind uwtable
define dso_local noundef ptr @_ZN4node6Buffer4DataEN2v85LocalINS1_5ValueEEE(ptr nonnull %val.coerce) local_unnamed_addr #3 {
entry:
  %call3 = tail call noundef zeroext i1 @_ZNK2v85Value17IsArrayBufferViewEv(ptr noundef nonnull align 1 dereferenceable(1) %val.coerce) #22
  br i1 %call3, label %do.end7, label %do.body6

do.body6:                                         ; preds = %entry
  tail call void @_ZN4node6AssertERKNS_13AssertionInfoE(ptr noundef nonnull align 8 dereferenceable(24) @_ZZN4node6Buffer4DataEN2v85LocalINS1_5ValueEEEE4args) #22
  tail call void @abort() #23
  unreachable

do.end7:                                          ; preds = %entry
  %call13 = tail call ptr @_ZN2v815ArrayBufferView6BufferEv(ptr noundef nonnull align 1 dereferenceable(1) %val.coerce) #22
  %call18 = tail call noundef ptr @_ZNK2v811ArrayBuffer4DataEv(ptr noundef nonnull align 1 dereferenceable(1) %call13) #22
  %call20 = tail call noundef i64 @_ZN2v815ArrayBufferView10ByteOffsetEv(ptr noundef nonnull align 1 dereferenceable(1) %val.coerce) #22
  %add.ptr = getelementptr inbounds i8, ptr %call18, i64 %call20
  ret ptr %add.ptr
}